; Function Attrs: nounwind uwtable
define internal range(i32 -1, 1) i32 @H5P__facc_file_image_info_set(i64 %0, ptr readnone captures(none) %1, i64 %2, ptr noundef captures(address_is_null) %3) #0 {
  %5 = load i8, ptr @H5P_init_g, align 1, !tbaa !16, !range !18, !noundef !19
  %6 = trunc nuw i8 %5 to i1
  %7 = load i8, ptr @H5_libterm_g, align 1, !range !18
  %8 = trunc nuw i8 %7 to i1
  %9 = xor i1 %8, true
  %10 = select i1 %6, i1 true, i1 %9
  br i1 %10, label %11, label %18, !prof !20

11:                                               ; preds = %4
  %12 = tail call fastcc i32 @H5P__file_image_info_copy(ptr noundef %3)
  %13 = icmp slt i32 %12, 0
  br i1 %13, label %14, label %18

14:                                               ; preds = %11
  %15 = load i64, ptr @H5E_PLIST_g, align 8, !tbaa !3
  %16 = load i64, ptr @H5E_CANTCOPY_g, align 8, !tbaa !3
  %17 = tail call i32 (ptr, ptr, i32, i64, i64, ptr, ...) @H5E_printf_stack(ptr noundef nonnull @.str.2, ptr noundef nonnull @__func__.H5P__facc_file_image_info_set, i32 noundef 3629, i64 noundef %15, i64 noundef %16, ptr noundef nonnull @.str.190) #15
  br label %18

18:                                               ; preds = %14, %11, %4
  %.0 = phi i32 [ -1, %14 ], [ 0, %11 ], [ 0, %4 ]
  ret i32 %.0
}